target datalayout = "e-m:e-p270:32:32-p271:32:32-p272:64:64-i64:64-i128:128-f80:128-n8:16:32:64-S128"
target triple = "x86_64-pc-linux-gnu"

; Function Attrs: nounwind uwtable
define dso_local ptr @convertToNativePathSeparators(ptr noundef %0) #0 {
  %2 = alloca ptr, align 8
  %3 = alloca ptr, align 8
  store ptr %0, ptr %2, align 8, !tbaa !11
  call void @llvm.lifetime.start.p0(i64 8, ptr %3) #7
  br label %4

4:                                                ; preds = %8, %1
  %5 = load ptr, ptr %2, align 8, !tbaa !11
  %6 = call ptr @strchr(ptr noundef %5, i32 noundef 47) #8
  store ptr %6, ptr %3, align 8, !tbaa !11
  %7 = icmp ne ptr %6, null
  br i1 %7, label %8, label %10

8:                                                ; preds = %4
  %9 = load ptr, ptr %3, align 8, !tbaa !11
  store i8 47, ptr %9, align 1, !tbaa !17
  br label %4, !llvm.loop !29

10:                                               ; preds = %4
  %11 = load ptr, ptr %2, align 8, !tbaa !11
  call void @llvm.lifetime.end.p0(i64 8, ptr %3) #7
  ret ptr %11
}