; Function Attrs: nofree nounwind memory(write, argmem: readwrite, inaccessiblemem: none) uwtable
define dso_local noundef ptr @convertToNativePathSeparators(ptr noundef returned %0) local_unnamed_addr #9 {
  %2 = tail call ptr @strchr(ptr noundef nonnull dereferenceable(1) %0, i32 noundef 47) #12
  %.not3 = icmp eq ptr %2, null
  br i1 %.not3, label %._crit_edge, label %.lr.ph

.lr.ph:                                           ; preds = %1, %.lr.ph
  %3 = phi ptr [ %4, %.lr.ph ], [ %2, %1 ]
  store i8 47, ptr %3, align 1, !tbaa !11
  %4 = tail call ptr @strchr(ptr noundef nonnull dereferenceable(1) %0, i32 noundef 47) #12
  %.not = icmp eq ptr %4, null
  br i1 %.not, label %._crit_edge, label %.lr.ph, !llvm.loop !21

._crit_edge:                                      ; preds = %.lr.ph, %1
  ret ptr %0
}